target datalayout = "e-m:e-p270:32:32-p271:32:32-p272:64:64-i64:64-i128:128-f80:128-n8:16:32:64-S128"
target triple = "x86_64-pc-linux-gnu"

%union.sem_t = type { i64, [24 x i8] }

@GC_on_abort = global ptr @GC_default_on_abort, align 8
@GC_sig_suspend = internal global i32 -1, align 4
@GC_sig_thr_restart = internal global i32 -1, align 4
@GC_stop_count = internal global i64 0, align 8
@GC_retry_signals = internal global i32 0, align 4
@.str.119 = private unnamed_addr constant [16 x i8] c"sem_wait failed\00", align 1
@GC_suspend_ack_sem = internal global %union.sem_t zeroinitializer, align 8

; Function Attrs: nounwind uwtable
define internal void @suspend_restart_barrier(i32 noundef %0) #0 {
  %2 = alloca i32, align 4
  %3 = alloca i32, align 4
  store i32 %0, ptr %2, align 4
  store i32 0, ptr %3, align 4
  br label %4

4:                                                ; preds = %20, %1
  %5 = load i32, ptr %3, align 4
  %6 = load i32, ptr %2, align 4
  %7 = icmp slt i32 %5, %6
  br i1 %7, label %8, label %23

8:                                                ; preds = %4
  br label %9

9:                                                ; preds = %18, %8
  %10 = call i32 @sem_wait(ptr noundef @GC_suspend_ack_sem)
  %11 = icmp ne i32 0, %10
  br i1 %11, label %12, label %19

12:                                               ; preds = %9
  %13 = call ptr @__errno_location() #23
  %14 = load i32, ptr %13, align 4
  %15 = icmp ne i32 %14, 4
  br i1 %15, label %16, label %18

16:                                               ; preds = %12
  %17 = load ptr, ptr @GC_on_abort, align 8
  call void %17(ptr noundef @.str.119)
  call void @abort() #20
  unreachable

18:                                               ; preds = %12
  br label %9, !llvm.loop !101

19:                                               ; preds = %9
  br label %20

20:                                               ; preds = %19
  %21 = load i32, ptr %3, align 4
  %22 = add nsw i32 %21, 1
  store i32 %22, ptr %3, align 4
  br label %4, !llvm.loop !102

23:                                               ; preds = %4
  ret void
}

; Function Attrs: nounwind uwtable
define internal void @GC_start_world() #0 {
  %1 = alloca i32, align 4
  %2 = alloca i64, align 8
  %3 = load volatile i64, ptr @GC_stop_count, align 8
  %4 = add i64 %3, 1
  store i64 %4, ptr %2, align 8
  %5 = load i64, ptr %2, align 8
  store atomic volatile i64 %5, ptr @GC_stop_count release, align 8
  %6 = call i32 @GC_restart_all()
  store i32 %6, ptr %1, align 4
  %7 = load i32, ptr @GC_retry_signals, align 4
  %8 = icmp ne i32 %7, 0
  br i1 %8, label %9, label %11

9:                                                ; preds = %0
  %10 = load i32, ptr %1, align 4
  call void @resend_lost_signals_retry(i32 noundef %10, ptr noundef @GC_restart_all)
  br label %18

11:                                               ; preds = %0
  %12 = load i32, ptr @GC_sig_suspend, align 4
  %13 = load i32, ptr @GC_sig_thr_restart, align 4
  %14 = icmp eq i32 %12, %13
  br i1 %14, label %15, label %17

15:                                               ; preds = %11
  %16 = load i32, ptr %1, align 4
  call void @suspend_restart_barrier(i32 noundef %16)
  br label %17

17:                                               ; preds = %15, %11
  br label %18

18:                                               ; preds = %17, %9
  ret void
}