; Function Attrs: nounwind uwtable
define internal fastcc void @GC_start_world() unnamed_addr #1 {
  %1 = load volatile i64, ptr @GC_stop_count, align 8
  %2 = add i64 %1, 1
  store atomic volatile i64 %2, ptr @GC_stop_count release, align 8
  %3 = tail call i32 @GC_restart_all()
  %4 = load i32, ptr @GC_retry_signals, align 4
  %.not = icmp eq i32 %4, 0
  br i1 %.not, label %6, label %5

5:                                                ; preds = %0
  tail call fastcc void @resend_lost_signals_retry(i32 noundef %3, ptr noundef nonnull @GC_restart_all)
  br label %suspend_restart_barrier.exit

6:                                                ; preds = %0
  %7 = load i32, ptr @GC_sig_suspend, align 4
  %8 = load i32, ptr @GC_sig_thr_restart, align 4
  %9 = icmp eq i32 %7, %8
  %10 = icmp sgt i32 %3, 0
  %or.cond = select i1 %9, i1 %10, i1 false
  br i1 %or.cond, label %.preheader.i, label %suspend_restart_barrier.exit

.preheader.i:                                     ; preds = %6, %18
  %.04.i = phi i32 [ %19, %18 ], [ 0, %6 ]
  br label %11

11:                                               ; preds = %13, %.preheader.i
  %12 = tail call i32 @sem_wait(ptr noundef nonnull @GC_suspend_ack_sem) #41
  %.not.i = icmp eq i32 %12, 0
  br i1 %.not.i, label %18, label %13

13:                                               ; preds = %11
  %14 = tail call ptr @__errno_location() #48
  %15 = load i32, ptr %14, align 4
  %.not3.i = icmp eq i32 %15, 4
  br i1 %.not3.i, label %11, label %16, !llvm.loop !30

16:                                               ; preds = %13
  %17 = load ptr, ptr @GC_on_abort, align 8
  tail call void %17(ptr noundef nonnull @.str.119) #41
  tail call void @abort() #47
  unreachable

18:                                               ; preds = %11
  %19 = add nuw nsw i32 %.04.i, 1
  %exitcond.not.i = icmp eq i32 %19, %3
  br i1 %exitcond.not.i, label %suspend_restart_barrier.exit, label %.preheader.i, !llvm.loop !31

suspend_restart_barrier.exit:                     ; preds = %18, %6, %5
  ret void
}